; Function Attrs: mustprogress nofree norecurse nosync nounwind willreturn memory(argmem: readwrite) uwtable
define i32 @Cudd_ReadPeakLiveNodeCount(ptr noundef captures(none) %0) local_unnamed_addr #7 {
  %2 = getelementptr inbounds nuw i8, ptr %0, i64 228
  %3 = load i32, ptr %2, align 4
  %4 = getelementptr inbounds nuw i8, ptr %0, i64 236
  %5 = load i32, ptr %4, align 4
  %6 = sub i32 %3, %5
  %7 = getelementptr inbounds nuw i8, ptr %0, i64 728
  %8 = load i32, ptr %7, align 8
  %9 = icmp ugt i32 %6, %8
  br i1 %9, label %10, label %11

10:                                               ; preds = %1
  store i32 %6, ptr %7, align 8
  br label %11

11:                                               ; preds = %10, %1
  %12 = phi i32 [ %6, %10 ], [ %8, %1 ]
  ret i32 %12
}